target datalayout = "e-m:e-p270:32:32-p271:32:32-p272:64:64-i64:64-i128:128-f80:128-n8:16:32:64-S128"
target triple = "x86_64-pc-linux-gnu"

%struct.FunctionCallInfoBaseData = type { ptr, ptr, ptr, i32, i8, i16, [0 x %struct.NullableDatum] }
%struct.NullableDatum = type { i64, i8 }

@MaxBackends = external global i32, align 4

; Function Attrs: inlinehint nounwind uwtable
define internal i64 @PointerGetDatum(ptr noundef %0) #3 {
  %2 = alloca ptr, align 8
  store ptr %0, ptr %2, align 8
  %3 = load ptr, ptr %2, align 8
  %4 = ptrtoint ptr %3 to i64
  ret i64 %4
}

; Function Attrs: inlinehint nounwind uwtable
define internal i64 @Int32GetDatum(i32 noundef %0) #3 {
  %2 = alloca i32, align 4
  store i32 %0, ptr %2, align 4
  %3 = load i32, ptr %2, align 4
  %4 = sext i32 %3 to i64
  ret i64 %4
}

; Function Attrs: inlinehint nounwind uwtable
define internal i32 @DatumGetInt32(i64 noundef %0) #3 {
  %2 = alloca i64, align 8
  store i64 %0, ptr %2, align 8
  %3 = load i64, ptr %2, align 8
  %4 = trunc i64 %3 to i32
  ret i32 %4
}

; Function Attrs: nounwind uwtable
define dso_local i64 @pg_safe_snapshot_blocking_pids(ptr noundef %0) #0 {
  %2 = alloca ptr, align 8
  %3 = alloca i32, align 4
  %4 = alloca ptr, align 8
  %5 = alloca i32, align 4
  %6 = alloca ptr, align 8
  %7 = alloca i32, align 4
  store ptr %0, ptr %2, align 8
  call void @llvm.lifetime.start.p0(i64 4, ptr %3) #5
  %8 = load ptr, ptr %2, align 8
  %9 = getelementptr inbounds nuw %struct.FunctionCallInfoBaseData, ptr %8, i32 0, i32 6
  %10 = getelementptr inbounds [0 x %struct.NullableDatum], ptr %9, i64 0, i64 0
  %11 = getelementptr inbounds nuw %struct.NullableDatum, ptr %10, i32 0, i32 0
  %12 = load i64, ptr %11, align 8
  %13 = call i32 @DatumGetInt32(i64 noundef %12)
  store i32 %13, ptr %3, align 4
  call void @llvm.lifetime.start.p0(i64 8, ptr %4) #5
  call void @llvm.lifetime.start.p0(i64 4, ptr %5) #5
  call void @llvm.lifetime.start.p0(i64 8, ptr %6) #5
  %14 = load i32, ptr @MaxBackends, align 4
  %15 = sext i32 %14 to i64
  %16 = mul i64 %15, 4
  %17 = call ptr @palloc(i64 noundef %16)
  store ptr %17, ptr %4, align 8
  %18 = load i32, ptr %3, align 4
  %19 = load ptr, ptr %4, align 8
  %20 = load i32, ptr @MaxBackends, align 4
  %21 = call i32 @GetSafeSnapshotBlockingPids(i32 noundef %18, ptr noundef %19, i32 noundef %20)
  store i32 %21, ptr %5, align 4
  %22 = load i32, ptr %5, align 4
  %23 = icmp sgt i32 %22, 0
  br i1 %23, label %24, label %48

24:                                               ; preds = %1
  call void @llvm.lifetime.start.p0(i64 4, ptr %7) #5
  %25 = load i32, ptr %5, align 4
  %26 = sext i32 %25 to i64
  %27 = mul i64 %26, 8
  %28 = call ptr @palloc(i64 noundef %27)
  store ptr %28, ptr %6, align 8
  store i32 0, ptr %7, align 4
  br label %29

29:                                               ; preds = %44, %24
  %30 = load i32, ptr %7, align 4
  %31 = load i32, ptr %5, align 4
  %32 = icmp slt i32 %30, %31
  br i1 %32, label %33, label %47

33:                                               ; preds = %29
  %34 = load ptr, ptr %4, align 8
  %35 = load i32, ptr %7, align 4
  %36 = sext i32 %35 to i64
  %37 = getelementptr inbounds i32, ptr %34, i64 %36
  %38 = load i32, ptr %37, align 4
  %39 = call i64 @Int32GetDatum(i32 noundef %38)
  %40 = load ptr, ptr %6, align 8
  %41 = load i32, ptr %7, align 4
  %42 = sext i32 %41 to i64
  %43 = getelementptr inbounds i64, ptr %40, i64 %42
  store i64 %39, ptr %43, align 8
  br label %44

44:                                               ; preds = %33
  %45 = load i32, ptr %7, align 4
  %46 = add i32 %45, 1
  store i32 %46, ptr %7, align 4
  br label %29, !llvm.loop !13

47:                                               ; preds = %29
  call void @llvm.lifetime.end.p0(i64 4, ptr %7) #5
  br label %49

48:                                               ; preds = %1
  store ptr null, ptr %6, align 8
  br label %49

49:                                               ; preds = %48, %47
  %50 = load ptr, ptr %6, align 8
  %51 = load i32, ptr %5, align 4
  %52 = call ptr @construct_array_builtin(ptr noundef %50, i32 noundef %51, i32 noundef 23)
  %53 = call i64 @PointerGetDatum(ptr noundef %52)
  call void @llvm.lifetime.end.p0(i64 8, ptr %6) #5
  call void @llvm.lifetime.end.p0(i64 4, ptr %5) #5
  call void @llvm.lifetime.end.p0(i64 8, ptr %4) #5
  call void @llvm.lifetime.end.p0(i64 4, ptr %3) #5
  ret i64 %53
}