; Function Attrs: nounwind uwtable
define dso_local i64 @pg_safe_snapshot_blocking_pids(ptr noundef readonly captures(none) %0) local_unnamed_addr #0 {
  %2 = getelementptr inbounds nuw i8, ptr %0, i64 32
  %3 = load i64, ptr %2, align 8
  %4 = trunc i64 %3 to i32
  %5 = load i32, ptr @MaxBackends, align 4
  %6 = sext i32 %5 to i64
  %7 = shl nsw i64 %6, 2
  %8 = tail call ptr @palloc(i64 noundef %7) #4
  %9 = load i32, ptr @MaxBackends, align 4
  %10 = tail call i32 @GetSafeSnapshotBlockingPids(i32 noundef %4, ptr noundef %8, i32 noundef %9) #4
  %11 = icmp sgt i32 %10, 0
  br i1 %11, label %12, label %.loopexit

12:                                               ; preds = %1
  %13 = zext nneg i32 %10 to i64
  %14 = shl nuw nsw i64 %13, 3
  %15 = tail call ptr @palloc(i64 noundef %14) #4
  br label %16

16:                                               ; preds = %12, %16
  %indvars.iv = phi i64 [ 0, %12 ], [ %indvars.iv.next, %16 ]
  %17 = getelementptr inbounds nuw i32, ptr %8, i64 %indvars.iv
  %18 = load i32, ptr %17, align 4
  %19 = sext i32 %18 to i64
  %20 = getelementptr inbounds nuw i64, ptr %15, i64 %indvars.iv
  store i64 %19, ptr %20, align 8
  %indvars.iv.next = add nuw nsw i64 %indvars.iv, 1
  %exitcond.not = icmp eq i64 %indvars.iv.next, %13
  br i1 %exitcond.not, label %.loopexit, label %16, !llvm.loop !12

.loopexit:                                        ; preds = %16, %1
  %.013 = phi ptr [ null, %1 ], [ %15, %16 ]
  %21 = tail call ptr @construct_array_builtin(ptr noundef %.013, i32 noundef %10, i32 noundef 23) #4
  %22 = ptrtoint ptr %21 to i64
  ret i64 %22
}